; Function Attrs: mustprogress nofree norecurse nosync nounwind willreturn memory(read, inaccessiblemem: none) uwtable
define { i64, ptr } @_ZNK5arrow15BinaryViewArray7GetViewEl(ptr nocapture noundef nonnull readonly align 8 dereferenceable(40) %this, i64 noundef %i) local_unnamed_addr #4 align 2 {
entry:
  %raw_values_ = getelementptr inbounds i8, ptr %this, i64 32
  %0 = load ptr, ptr %raw_values_, align 8
  %arrayidx = getelementptr inbounds %"union.arrow::BinaryViewType::c_type", ptr %0, i64 %i
  %1 = load i32, ptr %arrayidx, align 8
  %cmp.i.i = icmp slt i32 %1, 13
  br i1 %cmp.i.i, label %cond.true.i, label %cond.false.i

cond.true.i:                                      ; preds = %entry
  %data1.i = getelementptr inbounds i8, ptr %arrayidx, i64 4
  br label %_ZN5arrow4util14FromBinaryViewISt10shared_ptrINS_6BufferEEEESt17basic_string_viewIcSt11char_traitsIcEERKNS_14BinaryViewType6c_typeEPKT_.exit

cond.false.i:                                     ; preds = %entry
  %data_ = getelementptr inbounds i8, ptr %this, i64 8
  %2 = load ptr, ptr %data_, align 8
  %buffers = getelementptr inbounds i8, ptr %2, i64 40
  %3 = load ptr, ptr %buffers, align 8
  %add.ptr = getelementptr inbounds i8, ptr %3, i64 32
  %buffer_index.i = getelementptr inbounds i8, ptr %arrayidx, i64 8
  %4 = load i32, ptr %buffer_index.i, align 8
  %idxprom.i = sext i32 %4 to i64
  %arrayidx.i = getelementptr inbounds %"class.std::shared_ptr.15", ptr %add.ptr, i64 %idxprom.i
  %5 = load ptr, ptr %arrayidx.i, align 8
  %is_cpu_.i.i = getelementptr inbounds i8, ptr %5, i64 9
  %6 = load i8, ptr %is_cpu_.i.i, align 1
  %7 = and i8 %6, 1
  %tobool.not.i.i = icmp eq i8 %7, 0
  %data_.i.i = getelementptr inbounds i8, ptr %5, i64 16
  %8 = load ptr, ptr %data_.i.i, align 8
  %cond.i.i = select i1 %tobool.not.i.i, ptr null, ptr %8
  %offset.i = getelementptr inbounds i8, ptr %arrayidx, i64 12
  %9 = load i32, ptr %offset.i, align 4
  %idx.ext.i = sext i32 %9 to i64
  %add.ptr.i = getelementptr inbounds i8, ptr %cond.i.i, i64 %idx.ext.i
  br label %_ZN5arrow4util14FromBinaryViewISt10shared_ptrINS_6BufferEEEESt17basic_string_viewIcSt11char_traitsIcEERKNS_14BinaryViewType6c_typeEPKT_.exit

_ZN5arrow4util14FromBinaryViewISt10shared_ptrINS_6BufferEEEESt17basic_string_viewIcSt11char_traitsIcEERKNS_14BinaryViewType6c_typeEPKT_.exit: ; preds = %cond.true.i, %cond.false.i
  %cond.i = phi ptr [ %data1.i, %cond.true.i ], [ %add.ptr.i, %cond.false.i ]
  %conv.i = sext i32 %1 to i64
  %.fca.0.insert.i = insertvalue { i64, ptr } poison, i64 %conv.i, 0
  %.fca.1.insert.i = insertvalue { i64, ptr } %.fca.0.insert.i, ptr %cond.i, 1
  ret { i64, ptr } %.fca.1.insert.i
}